; Function Attrs: nounwind uwtable
define internal void @fn_start_fl(ptr noundef %0, i32 noundef %1, i64 noundef %2, ptr noundef %3) #0 {
  %5 = alloca i64, align 8
  %6 = alloca %struct.strbuf, align 8
  store i64 %2, ptr %5, align 8, !tbaa !9
  call void @llvm.lifetime.start.p0(i64 24, ptr nonnull %6) #7
  call void @llvm.memcpy.p0.p0.i64(ptr noundef nonnull align 8 dereferenceable(24) %6, ptr noundef nonnull align 8 dereferenceable(24) @__const.fn_counter.buf_payload, i64 24, i1 false)
  call void @sq_append_quote_argv_pretty(ptr noundef nonnull %6, ptr noundef %3) #7
  call fastcc void @perf_io_write_fl(ptr noundef %0, i32 noundef %1, ptr noundef nonnull @.str.15, ptr noundef null, ptr noundef nonnull %5, ptr noundef null, ptr noundef null, ptr noundef %6)
  call void @strbuf_release(ptr noundef nonnull %6) #7
  call void @llvm.lifetime.end.p0(i64 24, ptr nonnull %6) #7
  ret void
}